target datalayout = "e-m:e-p270:32:32-p271:32:32-p272:64:64-i64:64-i128:128-f80:128-n8:16:32:64-S128"
target triple = "x86_64-pc-linux-gnu"

%"class.icu_77::Package" = type <{ [64 x i8], [64 x i8], ptr, [1024 x i8], i32, i32, i8, i8, i8, i8, i32, i32, [4 x i8], ptr, i32, i32, [100000 x i8], [100000 x i8], i32, [4 x i8], ptr, ptr, i32, i32, i32, i8, [3 x i8] }>
%"struct.icu_77::Item" = type { ptr, ptr, i32, i8, i8 }

; Function Attrs: mustprogress nounwind uwtable
define void @_ZN6icu_777PackageD2Ev(ptr noundef nonnull align 8 dereferenceable(201237) %0) unnamed_addr #3 align 2 personality ptr @__gxx_personality_v0 {
  %2 = alloca ptr, align 8
  %3 = alloca i32, align 4
  store ptr %0, ptr %2, align 8, !tbaa !26
  %4 = load ptr, ptr %2, align 8
  call void @llvm.lifetime.start.p0(i64 4, ptr %3) #13
  %5 = getelementptr inbounds nuw %"class.icu_77::Package", ptr %4, i32 0, i32 2
  %6 = load ptr, ptr %5, align 8, !tbaa !33
  invoke void @uprv_free_77(ptr noundef %6)
          to label %7 unwind label %39

7:                                                ; preds = %1
  store i32 0, ptr %3, align 4, !tbaa !8
  br label %8

8:                                                ; preds = %32, %7
  %9 = load i32, ptr %3, align 4, !tbaa !8
  %10 = getelementptr inbounds nuw %"class.icu_77::Package", ptr %4, i32 0, i32 10
  %11 = load i32, ptr %10, align 4, !tbaa !37
  %12 = icmp slt i32 %9, %11
  br i1 %12, label %13, label %35

13:                                               ; preds = %8
  %14 = getelementptr inbounds nuw %"class.icu_77::Package", ptr %4, i32 0, i32 13
  %15 = load ptr, ptr %14, align 8, !tbaa !39
  %16 = load i32, ptr %3, align 4, !tbaa !8
  %17 = sext i32 %16 to i64
  %18 = getelementptr inbounds %"struct.icu_77::Item", ptr %15, i64 %17
  %19 = getelementptr inbounds nuw %"struct.icu_77::Item", ptr %18, i32 0, i32 3
  %20 = load i8, ptr %19, align 4, !tbaa !49
  %21 = icmp ne i8 %20, 0
  br i1 %21, label %22, label %31

22:                                               ; preds = %13
  %23 = getelementptr inbounds nuw %"class.icu_77::Package", ptr %4, i32 0, i32 13
  %24 = load ptr, ptr %23, align 8, !tbaa !39
  %25 = load i32, ptr %3, align 4, !tbaa !8
  %26 = sext i32 %25 to i64
  %27 = getelementptr inbounds %"struct.icu_77::Item", ptr %24, i64 %26
  %28 = getelementptr inbounds nuw %"struct.icu_77::Item", ptr %27, i32 0, i32 1
  %29 = load ptr, ptr %28, align 8, !tbaa !51
  invoke void @uprv_free_77(ptr noundef %29)
          to label %30 unwind label %39

30:                                               ; preds = %22
  br label %31

31:                                               ; preds = %30, %13
  br label %32

32:                                               ; preds = %31
  %33 = load i32, ptr %3, align 4, !tbaa !8
  %34 = add nsw i32 %33, 1
  store i32 %34, ptr %3, align 4, !tbaa !8
  br label %8, !llvm.loop !52

35:                                               ; preds = %8
  %36 = getelementptr inbounds nuw %"class.icu_77::Package", ptr %4, i32 0, i32 13
  %37 = load ptr, ptr %36, align 8, !tbaa !39
  invoke void @uprv_free_77(ptr noundef %37)
          to label %38 unwind label %39

38:                                               ; preds = %35
  call void @llvm.lifetime.end.p0(i64 4, ptr %3) #13
  ret void

39:                                               ; preds = %35, %22, %1
  %40 = landingpad { ptr, i32 }
          catch ptr null
  %41 = extractvalue { ptr, i32 } %40, 0
  call void @__clang_call_terminate(ptr %41) #14
  unreachable
}