; Function Attrs: mustprogress nounwind uwtable
define void @_ZN6icu_777PackageD2Ev(ptr noundef nonnull readonly align 8 captures(none) dereferenceable(201237) %0) unnamed_addr #4 align 2 personality ptr @__gxx_personality_v0 {
  %2 = getelementptr inbounds nuw i8, ptr %0, i64 128
  %3 = load ptr, ptr %2, align 8, !tbaa !20
  invoke void @uprv_free_77(ptr noundef %3)
          to label %.preheader unwind label %.loopexit.split-lp

.preheader:                                       ; preds = %1
  %4 = getelementptr inbounds nuw i8, ptr %0, i64 1172
  %5 = load i32, ptr %4, align 4, !tbaa !29
  %6 = icmp sgt i32 %5, 0
  br i1 %6, label %.lr.ph, label %._crit_edge

.lr.ph:                                           ; preds = %.preheader
  %7 = getelementptr inbounds nuw i8, ptr %0, i64 1184
  br label %8

8:                                                ; preds = %.lr.ph, %17
  %9 = phi i32 [ %5, %.lr.ph ], [ %18, %17 ]
  %indvars.iv = phi i64 [ 0, %.lr.ph ], [ %indvars.iv.next, %17 ]
  %10 = load ptr, ptr %7, align 8, !tbaa !30
  %11 = getelementptr inbounds nuw %"struct.icu_77::Item", ptr %10, i64 %indvars.iv
  %12 = getelementptr inbounds nuw i8, ptr %11, i64 20
  %13 = load i8, ptr %12, align 4, !tbaa !31
  %.not = icmp eq i8 %13, 0
  br i1 %.not, label %17, label %14

14:                                               ; preds = %8
  %15 = getelementptr inbounds nuw i8, ptr %11, i64 8
  %16 = load ptr, ptr %15, align 8, !tbaa !33
  invoke void @uprv_free_77(ptr noundef %16)
          to label %._crit_edge6 unwind label %.loopexit

._crit_edge6:                                     ; preds = %14
  %.pre = load i32, ptr %4, align 4, !tbaa !29
  br label %17

17:                                               ; preds = %._crit_edge6, %8
  %18 = phi i32 [ %.pre, %._crit_edge6 ], [ %9, %8 ]
  %indvars.iv.next = add nuw nsw i64 %indvars.iv, 1
  %19 = sext i32 %18 to i64
  %20 = icmp slt i64 %indvars.iv.next, %19
  br i1 %20, label %8, label %._crit_edge, !llvm.loop !34

._crit_edge:                                      ; preds = %17, %.preheader
  %21 = getelementptr inbounds nuw i8, ptr %0, i64 1184
  %22 = load ptr, ptr %21, align 8, !tbaa !30
  invoke void @uprv_free_77(ptr noundef %22)
          to label %23 unwind label %.loopexit.split-lp

23:                                               ; preds = %._crit_edge
  ret void

.loopexit:                                        ; preds = %14
  %lpad.loopexit = landingpad { ptr, i32 }
          catch ptr null
  br label %24

.loopexit.split-lp:                               ; preds = %1, %._crit_edge
  %lpad.loopexit.split-lp = landingpad { ptr, i32 }
          catch ptr null
  br label %24

24:                                               ; preds = %.loopexit.split-lp, %.loopexit
  %lpad.phi = phi { ptr, i32 } [ %lpad.loopexit, %.loopexit ], [ %lpad.loopexit.split-lp, %.loopexit.split-lp ]
  %25 = extractvalue { ptr, i32 } %lpad.phi, 0
  tail call void @__clang_call_terminate(ptr %25) #22
  unreachable
}